; Function Attrs: nounwind uwtable
define hidden i32 @SDL_GetPrimaryDisplay_REAL() local_unnamed_addr #0 {
  %1 = load ptr, ptr @_this, align 8
  %.not = icmp eq ptr %1, null
  br i1 %.not, label %6, label %2

2:                                                ; preds = %0
  %3 = getelementptr inbounds nuw i8, ptr %1, i64 800
  %4 = load i32, ptr %3, align 8
  %5 = icmp eq i32 %4, 0
  br i1 %5, label %6, label %8

6:                                                ; preds = %2, %0
  %7 = tail call zeroext i1 (ptr, ...) @SDL_SetError_REAL(ptr noundef nonnull @.str.1) #19
  br label %13

8:                                                ; preds = %2
  %9 = getelementptr inbounds nuw i8, ptr %1, i64 808
  %10 = load ptr, ptr %9, align 8
  %11 = load ptr, ptr %10, align 8
  %12 = load i32, ptr %11, align 8
  br label %13

13:                                               ; preds = %8, %6
  %.0 = phi i32 [ 0, %6 ], [ %12, %8 ]
  ret i32 %.0
}